; ModuleID = '60/1818.c'
source_filename = "60/1818.c"
target datalayout = "e-m:e-p270:32:32-p271:32:32-p272:64:64-i64:64-f80:128-n8:16:32:64-S128"
target triple = "x86_64-pc-linux-gnu"

@.str = private unnamed_addr constant [3 x i8] c"%d\00", align 1
@.str.1 = private unnamed_addr constant [7 x i8] c"%d %d\0A\00", align 1
@.str.2 = private unnamed_addr constant [6 x i8] c"empty\00", align 1

; Function Attrs: noinline nounwind uwtable
define dso_local i32 @main() #0 {
  %1 = alloca i32, align 4
  %2 = alloca i32, align 4
  %3 = alloca i32, align 4
  %4 = alloca i32, align 4
  %5 = alloca i32, align 4
  %6 = alloca i32, align 4
  %7 = alloca i32, align 4
  store i32 0, i32* %1, align 4
  %8 = call i32 (i8*, ...) @__isoc99_scanf(i8* getelementptr inbounds ([3 x i8], [3 x i8]* @.str, i64 0, i64 0), i32* %2)
  %9 = load i32, i32* %2, align 4
  %10 = icmp sgt i32 %9, 4
  br i1 %10, label %11, label %78

11:                                               ; preds = %0
  store i32 3, i32* %3, align 4
  br label %12

12:                                               ; preds = %74, %11
  %13 = load i32, i32* %3, align 4
  %14 = load i32, i32* %2, align 4
  %15 = sub nsw i32 %14, 2
  %16 = icmp sle i32 %13, %15
  br i1 %16, label %17, label %77

17:                                               ; preds = %12
  store i32 0, i32* %7, align 4
  %18 = load i32, i32* %3, align 4
  %19 = add nsw i32 %18, 2
  store i32 %19, i32* %5, align 4
  store i32 2, i32* %4, align 4
  br label %20

20:                                               ; preds = %32, %17
  %21 = load i32, i32* %4, align 4
  %22 = load i32, i32* %3, align 4
  %23 = sdiv i32 %22, 2
  %24 = icmp sle i32 %21, %23
  br i1 %24, label %25, label %35

25:                                               ; preds = %20
  %26 = load i32, i32* %3, align 4
  %27 = load i32, i32* %4, align 4
  %28 = srem i32 %26, %27
  %29 = icmp eq i32 %28, 0
  br i1 %29, label %30, label %31

30:                                               ; preds = %25
  br label %35

31:                                               ; preds = %25
  br label %32

32:                                               ; preds = %31
  %33 = load i32, i32* %4, align 4
  %34 = add nsw i32 %33, 1
  store i32 %34, i32* %4, align 4
  br label %20

35:                                               ; preds = %30, %20
  %36 = load i32, i32* %4, align 4
  %37 = load i32, i32* %3, align 4
  %38 = sdiv i32 %37, 2
  %39 = add nsw i32 %38, 1
  %40 = icmp eq i32 %36, %39
  br i1 %40, label %41, label %42

41:                                               ; preds = %35
  store i32 1, i32* %7, align 4
  br label %42

42:                                               ; preds = %41, %35
  store i32 2, i32* %6, align 4
  br label %43

43:                                               ; preds = %55, %42
  %44 = load i32, i32* %6, align 4
  %45 = load i32, i32* %5, align 4
  %46 = sdiv i32 %45, 2
  %47 = icmp sle i32 %44, %46
  br i1 %47, label %48, label %58

48:                                               ; preds = %43
  %49 = load i32, i32* %5, align 4
  %50 = load i32, i32* %6, align 4
  %51 = srem i32 %49, %50
  %52 = icmp eq i32 %51, 0
  br i1 %52, label %53, label %54

53:                                               ; preds = %48
  br label %58

54:                                               ; preds = %48
  br label %55

55:                                               ; preds = %54
  %56 = load i32, i32* %6, align 4
  %57 = add nsw i32 %56, 1
  store i32 %57, i32* %6, align 4
  br label %43

58:                                               ; preds = %53, %43
  %59 = load i32, i32* %6, align 4
  %60 = load i32, i32* %5, align 4
  %61 = sdiv i32 %60, 2
  %62 = add nsw i32 %61, 1
  %63 = icmp eq i32 %59, %62
  br i1 %63, label %64, label %67

64:                                               ; preds = %58
  %65 = load i32, i32* %7, align 4
  %66 = add nsw i32 %65, 1
  store i32 %66, i32* %7, align 4
  br label %67

67:                                               ; preds = %64, %58
  %68 = load i32, i32* %7, align 4
  %69 = icmp eq i32 %68, 2
  br i1 %69, label %70, label %74

70:                                               ; preds = %67
  %71 = load i32, i32* %3, align 4
  %72 = load i32, i32* %5, align 4
  %73 = call i32 (i8*, ...) @printf(i8* getelementptr inbounds ([7 x i8], [7 x i8]* @.str.1, i64 0, i64 0), i32 %71, i32 %72)
  br label %74

74:                                               ; preds = %70, %67
  %75 = load i32, i32* %3, align 4
  %76 = add nsw i32 %75, 2
  store i32 %76, i32* %3, align 4
  br label %12

77:                                               ; preds = %12
  br label %80

78:                                               ; preds = %0
  %79 = call i32 (i8*, ...) @printf(i8* getelementptr inbounds ([6 x i8], [6 x i8]* @.str.2, i64 0, i64 0))
  br label %80

80:                                               ; preds = %78, %77
  %81 = load i32, i32* %1, align 4
  ret i32 %81
}

declare dso_local i32 @__isoc99_scanf(i8*, ...) #1

declare dso_local i32 @printf(i8*, ...) #1


!llvm.module.flags = !{!0}
!llvm.ident = !{!1}

!0 = !{i32 1, !"wchar_size", i32 4}
!1 = !{!"clang version 10.0.0-4ubuntu1 "}
